target datalayout = "e-m:e-p270:32:32-p271:32:32-p272:64:64-i64:64-i128:128-f80:128-n8:16:32:64-S128"
target triple = "x86_64-unknown-linux-gnu"

%"class.nlsat::solver" = type { ptr, ptr }

; Function Attrs: mustprogress uwtable
define hidden void @_ZN5nlsat6solverC2ER8reslimitRK10params_refb(ptr noundef nonnull align 8 dereferenceable(16) %this, ptr noundef nonnull align 8 dereferenceable(40) %rlim, ptr noundef nonnull align 8 dereferenceable(8) %p, i1 noundef zeroext %incremental) unnamed_addr #5 align 2 {
entry:
  %this.addr = alloca ptr, align 8
  %rlim.addr = alloca ptr, align 8
  %p.addr = alloca ptr, align 8
  %incremental.addr = alloca i8, align 1
  store ptr %this, ptr %this.addr, align 8
  store ptr %rlim, ptr %rlim.addr, align 8
  store ptr %p, ptr %p.addr, align 8
  %frombool = zext i1 %incremental to i8
  store i8 %frombool, ptr %incremental.addr, align 1
  %this1 = load ptr, ptr %this.addr, align 8
  %call = call noalias noundef ptr @_ZN6memory8allocateEm(i64 noundef 1304)
  %0 = load ptr, ptr %rlim.addr, align 8
  %1 = load ptr, ptr %p.addr, align 8
  %2 = load i8, ptr %incremental.addr, align 1
  %tobool = trunc i8 %2 to i1
  call void @_ZN5nlsat6solver3ctxC2ER8reslimitRK10params_refb(ptr noundef nonnull align 8 dereferenceable(1297) %call, ptr noundef nonnull align 8 dereferenceable(40) %0, ptr noundef nonnull align 8 dereferenceable(8) %1, i1 noundef zeroext %tobool)
  %m_ctx = getelementptr inbounds %"class.nlsat::solver", ptr %this1, i32 0, i32 1
  store ptr %call, ptr %m_ctx, align 8
  %call2 = call noalias noundef ptr @_ZN6memory8allocateEm(i64 noundef 728)
  %m_ctx3 = getelementptr inbounds %"class.nlsat::solver", ptr %this1, i32 0, i32 1
  %3 = load ptr, ptr %m_ctx3, align 8
  call void @_ZN5nlsat6solver3impC2ERS0_RNS0_3ctxE(ptr noundef nonnull align 8 dereferenceable(728) %call2, ptr noundef nonnull align 8 dereferenceable(16) %this1, ptr noundef nonnull align 8 dereferenceable(1297) %3)
  %m_imp = getelementptr inbounds %"class.nlsat::solver", ptr %this1, i32 0, i32 0
  store ptr %call2, ptr %m_imp, align 8
  ret void
}