; Function Attrs: mustprogress uwtable
define hidden void @_ZN5nlsat6solverC2ER8reslimitRK10params_refb(ptr noundef nonnull align 8 dereferenceable(16) %this, ptr noundef nonnull align 8 dereferenceable(40) %rlim, ptr noundef nonnull align 8 dereferenceable(8) %p, i1 noundef zeroext %incremental) unnamed_addr #4 align 2 {
entry:
  %call = tail call noalias noundef ptr @_ZN6memory8allocateEm(i64 noundef 1304)
  tail call void @_ZN5nlsat6solver3ctxC2ER8reslimitRK10params_refb(ptr noundef nonnull align 8 dereferenceable(1297) %call, ptr noundef nonnull align 8 dereferenceable(40) %rlim, ptr noundef nonnull align 8 dereferenceable(8) %p, i1 noundef zeroext %incremental)
  %m_ctx = getelementptr inbounds i8, ptr %this, i64 8
  store ptr %call, ptr %m_ctx, align 8
  %call2 = tail call noalias noundef ptr @_ZN6memory8allocateEm(i64 noundef 728)
  %0 = load ptr, ptr %m_ctx, align 8
  tail call void @_ZN5nlsat6solver3impC2ERS0_RNS0_3ctxE(ptr noundef nonnull align 8 dereferenceable(728) %call2, ptr noundef nonnull align 8 dereferenceable(16) %this, ptr noundef nonnull align 8 dereferenceable(1297) %0)
  store ptr %call2, ptr %this, align 8
  ret void
}